target datalayout = "e-m:e-p270:32:32-p271:32:32-p272:64:64-i64:64-i128:128-f80:128-n8:16:32:64-S128"
target triple = "x86_64-pc-linux-gnu"

%struct._lv_global_t = type { i8, i8, %struct.lv_ll_t, ptr, ptr, %struct.lv_ll_t, i8, i32, i32, ptr, %struct.lv_ll_t, ptr, %struct.lv_ll_t, ptr, ptr, i32, ptr, i8, i32, i32, ptr, i32, %struct.lv_timer_state_t, %struct.lv_anim_state_t, %struct.lv_tick_state_t, %struct._lv_draw_buf_handlers_t, %struct._lv_draw_buf_handlers_t, %struct._lv_draw_buf_handlers_t, %struct.lv_ll_t, ptr, ptr, %struct.lv_draw_global_info_t, [4 x %struct.lv_draw_sw_mask_radius_circle_dsc_t], ptr, ptr, ptr, %struct.lv_tlsf_state_t, %struct.lv_ll_t, ptr, ptr, %struct.lv_style_t, i64, ptr, i32, ptr }
%struct.lv_timer_state_t = type { %struct.lv_ll_t, i8, i8, i8, i8, i32, i8, i32, i32, i32, i32, ptr, ptr }
%struct.lv_anim_state_t = type { i8, i8, ptr, %struct.lv_ll_t }
%struct.lv_tick_state_t = type { i32, i8, ptr, ptr }
%struct._lv_draw_buf_handlers_t = type { ptr, ptr, ptr, ptr, ptr, ptr }
%struct.lv_draw_global_info_t = type { ptr, i32, i32, i32, i32, i8 }
%struct.lv_draw_sw_mask_radius_circle_dsc_t = type { ptr, ptr, ptr, ptr, i32, i32, i32 }
%struct.lv_tlsf_state_t = type { ptr, i64, i64, %struct.lv_ll_t }
%struct.lv_ll_t = type { i32, ptr, ptr }
%struct.lv_style_t = type { ptr, i32, i8 }
%struct._lv_display_t = type { i32, i32, i32, i32, i32, i32, i32, ptr, ptr, ptr, ptr, ptr, i32, i32, i8, i32, i16, i32, [32 x %struct.lv_area_t], [32 x i8], i32, i32, %struct.lv_ll_t, %struct._lv_draw_buf_t, %struct._lv_draw_buf_t, ptr, ptr, ptr, ptr, ptr, ptr, ptr, ptr, ptr, ptr, i32, i8, ptr, ptr, %struct.lv_event_list_t, i8, ptr, ptr, i32, %struct.lv_area_t }
%struct._lv_draw_buf_t = type { %struct.lv_image_header_t, i32, ptr, ptr, ptr }
%struct.lv_image_header_t = type <{ i64, i32 }>
%struct.lv_event_list_t = type { %struct._lv_array_t, i8 }
%struct._lv_array_t = type { ptr, i32, i32, i32, i8 }
%struct.lv_area_t = type { i32, i32, i32, i32 }

@lv_global = external global %struct._lv_global_t, align 8

; Function Attrs: nounwind uwtable
define ptr @lv_display_get_default() #0 {
  %1 = load ptr, ptr getelementptr inbounds nuw (%struct._lv_global_t, ptr @lv_global, i32 0, i32 4), align 8, !tbaa !35
  ret ptr %1
}

; Function Attrs: nounwind uwtable
define i32 @lv_display_get_dpi(ptr noundef %0) #0 {
  %2 = alloca i32, align 4
  %3 = alloca ptr, align 8
  store ptr %0, ptr %3, align 8, !tbaa !7
  %4 = load ptr, ptr %3, align 8, !tbaa !7
  %5 = icmp eq ptr %4, null
  br i1 %5, label %6, label %8

6:                                                ; preds = %1
  %7 = call ptr @lv_display_get_default()
  store ptr %7, ptr %3, align 8, !tbaa !7
  br label %8

8:                                                ; preds = %6, %1
  %9 = load ptr, ptr %3, align 8, !tbaa !7
  %10 = icmp eq ptr %9, null
  br i1 %10, label %11, label %12

11:                                               ; preds = %8
  store i32 130, ptr %2, align 4
  br label %16

12:                                               ; preds = %8
  %13 = load ptr, ptr %3, align 8, !tbaa !7
  %14 = getelementptr inbounds nuw %struct._lv_display_t, ptr %13, i32 0, i32 6
  %15 = load i32, ptr %14, align 8, !tbaa !23
  store i32 %15, ptr %2, align 4
  br label %16

16:                                               ; preds = %12, %11
  %17 = load i32, ptr %2, align 4
  ret i32 %17
}

; Function Attrs: nounwind uwtable
define i32 @lv_dpx(i32 noundef %0) #0 {
  %2 = alloca i32, align 4
  store i32 %0, ptr %2, align 4, !tbaa !3
  %3 = load i32, ptr %2, align 4, !tbaa !3
  %4 = icmp eq i32 %3, 0
  br i1 %4, label %5, label %6

5:                                                ; preds = %1
  br label %22

6:                                                ; preds = %1
  %7 = call i32 @lv_display_get_dpi(ptr noundef null)
  %8 = load i32, ptr %2, align 4, !tbaa !3
  %9 = mul nsw i32 %7, %8
  %10 = add nsw i32 %9, 80
  %11 = sdiv i32 %10, 160
  %12 = icmp sgt i32 %11, 1
  br i1 %12, label %13, label %19

13:                                               ; preds = %6
  %14 = call i32 @lv_display_get_dpi(ptr noundef null)
  %15 = load i32, ptr %2, align 4, !tbaa !3
  %16 = mul nsw i32 %14, %15
  %17 = add nsw i32 %16, 80
  %18 = sdiv i32 %17, 160
  br label %20

19:                                               ; preds = %6
  br label %20

20:                                               ; preds = %19, %13
  %21 = phi i32 [ %18, %13 ], [ 1, %19 ]
  br label %22

22:                                               ; preds = %20, %5
  %23 = phi i32 [ 0, %5 ], [ %21, %20 ]
  ret i32 %23
}