; Function Attrs: mustprogress nofree norecurse nosync nounwind willreturn memory(read, inaccessiblemem: none) uwtable
define range(i32 -13421772, 13421773) i32 @lv_dpx(i32 noundef %0) local_unnamed_addr #6 {
  %2 = icmp eq i32 %0, 0
  br i1 %2, label %14, label %3

3:                                                ; preds = %1
  %4 = load ptr, ptr getelementptr inbounds nuw (i8, ptr @lv_global, i64 40), align 8, !tbaa !33
  %5 = icmp eq ptr %4, null
  br i1 %5, label %lv_display_get_dpi.exit, label %lv_display_get_dpi.exit.thread

lv_display_get_dpi.exit:                          ; preds = %3
  %6 = icmp sgt i32 %0, 1
  br i1 %6, label %lv_display_get_dpi.exit5, label %14

lv_display_get_dpi.exit.thread:                   ; preds = %3
  %7 = getelementptr inbounds nuw i8, ptr %4, i64 24
  %8 = load i32, ptr %7, align 8, !tbaa !21
  %9 = mul nsw i32 %8, %0
  %10 = icmp sgt i32 %9, 239
  br i1 %10, label %lv_display_get_dpi.exit5, label %14

lv_display_get_dpi.exit5:                         ; preds = %lv_display_get_dpi.exit.thread, %lv_display_get_dpi.exit
  %.03.i4 = phi i32 [ 130, %lv_display_get_dpi.exit ], [ %8, %lv_display_get_dpi.exit.thread ]
  %11 = mul nsw i32 %.03.i4, %0
  %12 = add nsw i32 %11, 80
  %13 = sdiv i32 %12, 160
  br label %14

14:                                               ; preds = %lv_display_get_dpi.exit.thread, %lv_display_get_dpi.exit5, %lv_display_get_dpi.exit, %1
  %15 = phi i32 [ 0, %1 ], [ %13, %lv_display_get_dpi.exit5 ], [ 1, %lv_display_get_dpi.exit ], [ 1, %lv_display_get_dpi.exit.thread ]
  ret i32 %15
}